; ModuleID = '23/35.c'
source_filename = "23/35.c"
target datalayout = "e-m:e-p270:32:32-p271:32:32-p272:64:64-i64:64-f80:128-n8:16:32:64-S128"
target triple = "x86_64-pc-linux-gnu"

@.str = private unnamed_addr constant [3 x i8] c"%s\00", align 1
@.str.1 = private unnamed_addr constant [1 x i8] zeroinitializer, align 1
@.str.2 = private unnamed_addr constant [2 x i8] c" \00", align 1
@.str.3 = private unnamed_addr constant [3 x i8] c"%c\00", align 1

; Function Attrs: noinline nounwind uwtable
define dso_local void @main() #0 {
  %1 = alloca [101 x i8], align 16
  %2 = alloca i32, align 4
  %3 = alloca i8*, align 8
  %4 = alloca i8*, align 8
  %5 = alloca i8*, align 8
  %6 = alloca i8*, align 8
  %7 = getelementptr inbounds [101 x i8], [101 x i8]* %1, i64 0, i64 0
  %8 = call i32 (i8*, ...) bitcast (i32 (...)* @gets to i32 (i8*, ...)*)(i8* %7)
  %9 = getelementptr inbounds [101 x i8], [101 x i8]* %1, i64 0, i64 0
  %10 = call i64 @strlen(i8* %9) #3
  %11 = trunc i64 %10 to i32
  store i32 %11, i32* %2, align 4
  %12 = getelementptr inbounds [101 x i8], [101 x i8]* %1, i64 0, i64 0
  store i8* %12, i8** %5, align 8
  %13 = getelementptr inbounds [101 x i8], [101 x i8]* %1, i64 0, i64 0
  %14 = load i32, i32* %2, align 4
  %15 = sext i32 %14 to i64
  %16 = getelementptr inbounds i8, i8* %13, i64 %15
  store i8* %16, i8** %6, align 8
  store i8* %16, i8** %4, align 8
  store i8* %16, i8** %3, align 8
  br label %17

17:                                               ; preds = %78, %0
  %18 = load i8*, i8** %3, align 8
  %19 = load i8*, i8** %5, align 8
  %20 = icmp uge i8* %18, %19
  br i1 %20, label %21, label %81

21:                                               ; preds = %17
  %22 = load i8*, i8** %3, align 8
  %23 = load i8, i8* %22, align 1
  %24 = sext i8 %23 to i32
  %25 = icmp eq i32 %24, 32
  br i1 %25, label %26, label %50

26:                                               ; preds = %21
  %27 = load i8*, i8** %3, align 8
  %28 = getelementptr inbounds i8, i8* %27, i64 1
  store i8* %28, i8** %6, align 8
  %29 = load i8*, i8** %4, align 8
  %30 = load i8, i8* %29, align 1
  %31 = sext i8 %30 to i32
  %32 = icmp eq i32 %31, 0
  %33 = zext i1 %32 to i64
  %34 = select i1 %32, i8* getelementptr inbounds ([1 x i8], [1 x i8]* @.str.1, i64 0, i64 0), i8* getelementptr inbounds ([2 x i8], [2 x i8]* @.str.2, i64 0, i64 0)
  %35 = call i32 (i8*, ...) @printf(i8* getelementptr inbounds ([3 x i8], [3 x i8]* @.str, i64 0, i64 0), i8* %34)
  br label %36

36:                                               ; preds = %45, %26
  %37 = load i8*, i8** %6, align 8
  %38 = load i8*, i8** %4, align 8
  %39 = icmp ult i8* %37, %38
  br i1 %39, label %40, label %48

40:                                               ; preds = %36
  %41 = load i8*, i8** %6, align 8
  %42 = load i8, i8* %41, align 1
  %43 = sext i8 %42 to i32
  %44 = call i32 (i8*, ...) @printf(i8* getelementptr inbounds ([3 x i8], [3 x i8]* @.str.3, i64 0, i64 0), i32 %43)
  br label %45

45:                                               ; preds = %40
  %46 = load i8*, i8** %6, align 8
  %47 = getelementptr inbounds i8, i8* %46, i32 1
  store i8* %47, i8** %6, align 8
  br label %36

48:                                               ; preds = %36
  %49 = load i8*, i8** %3, align 8
  store i8* %49, i8** %4, align 8
  br label %77

50:                                               ; preds = %21
  %51 = load i8*, i8** %3, align 8
  %52 = load i8*, i8** %5, align 8
  %53 = icmp eq i8* %51, %52
  br i1 %53, label %54, label %76

54:                                               ; preds = %50
  %55 = load i8*, i8** %4, align 8
  %56 = load i8, i8* %55, align 1
  %57 = sext i8 %56 to i32
  %58 = icmp eq i32 %57, 0
  %59 = zext i1 %58 to i64
  %60 = select i1 %58, i8* getelementptr inbounds ([1 x i8], [1 x i8]* @.str.1, i64 0, i64 0), i8* getelementptr inbounds ([2 x i8], [2 x i8]* @.str.2, i64 0, i64 0)
  %61 = call i32 (i8*, ...) @printf(i8* getelementptr inbounds ([3 x i8], [3 x i8]* @.str, i64 0, i64 0), i8* %60)
  %62 = load i8*, i8** %3, align 8
  store i8* %62, i8** %6, align 8
  br label %63

63:                                               ; preds = %72, %54
  %64 = load i8*, i8** %6, align 8
  %65 = load i8*, i8** %4, align 8
  %66 = icmp ult i8* %64, %65
  br i1 %66, label %67, label %75

67:                                               ; preds = %63
  %68 = load i8*, i8** %6, align 8
  %69 = load i8, i8* %68, align 1
  %70 = sext i8 %69 to i32
  %71 = call i32 (i8*, ...) @printf(i8* getelementptr inbounds ([3 x i8], [3 x i8]* @.str.3, i64 0, i64 0), i32 %70)
  br label %72

72:                                               ; preds = %67
  %73 = load i8*, i8** %6, align 8
  %74 = getelementptr inbounds i8, i8* %73, i32 1
  store i8* %74, i8** %6, align 8
  br label %63

75:                                               ; preds = %63
  br label %76

76:                                               ; preds = %75, %50
  br label %77

77:                                               ; preds = %76, %48
  br label %78

78:                                               ; preds = %77
  %79 = load i8*, i8** %3, align 8
  %80 = getelementptr inbounds i8, i8* %79, i32 -1
  store i8* %80, i8** %3, align 8
  br label %17

81:                                               ; preds = %17
  ret void
}

declare dso_local i32 @gets(...) #1

; Function Attrs: nounwind readonly
declare dso_local i64 @strlen(i8*) #2

declare dso_local i32 @printf(i8*, ...) #1


!llvm.module.flags = !{!0}
!llvm.ident = !{!1}

!0 = !{i32 1, !"wchar_size", i32 4}
!1 = !{!"clang version 10.0.0-4ubuntu1 "}
