; ModuleID = 'source-C-CXX/22/35.c'
source_filename = "source-C-CXX/22/35.c"
target datalayout = "e-m:e-p270:32:32-p271:32:32-p272:64:64-i64:64-f80:128-n8:16:32:64-S128"
target triple = "x86_64-pc-linux-gnu"

@.str = private unnamed_addr constant [3 x i8] c"%s\00", align 1
@.str.1 = private unnamed_addr constant [1 x i8] zeroinitializer, align 1
@.str.2 = private unnamed_addr constant [2 x i8] c" \00", align 1

; Function Attrs: nounwind sspstrong uwtable
define dso_local void @main() local_unnamed_addr #0 {
  %1 = alloca [101 x i8], align 16
  %2 = getelementptr inbounds [101 x i8], [101 x i8]* %1, i64 0, i64 0
  call void @llvm.lifetime.start.p0i8(i64 101, i8* nonnull %2) #6
  %3 = call i32 (i8*, ...) bitcast (i32 (...)* @gets to i32 (i8*, ...)*)(i8* nonnull %2) #6
  %4 = call i64 @strlen(i8* noundef nonnull %2) #7
  %5 = shl i64 %4, 32
  %6 = ashr exact i64 %5, 32
  %7 = getelementptr inbounds [101 x i8], [101 x i8]* %1, i64 0, i64 %6
  %8 = icmp slt i64 %5, 0
  br i1 %8, label %47, label %9

9:                                                ; preds = %0, %43
  %10 = phi i8* [ %45, %43 ], [ %7, %0 ]
  %11 = phi i8* [ %44, %43 ], [ %7, %0 ]
  %12 = load i8, i8* %10, align 1, !tbaa !5
  %13 = icmp eq i8 %12, 32
  br i1 %13, label %14, label %28

14:                                               ; preds = %9
  %15 = load i8, i8* %11, align 1, !tbaa !5
  %16 = icmp eq i8 %15, 0
  %17 = select i1 %16, i8* getelementptr inbounds ([1 x i8], [1 x i8]* @.str.1, i64 0, i64 0), i8* getelementptr inbounds ([2 x i8], [2 x i8]* @.str.2, i64 0, i64 0)
  %18 = call i32 (i8*, ...) @printf(i8* nonnull dereferenceable(1) getelementptr inbounds ([3 x i8], [3 x i8]* @.str, i64 0, i64 0), i8* %17)
  %19 = getelementptr inbounds i8, i8* %10, i64 1
  %20 = icmp ult i8* %19, %11
  br i1 %20, label %21, label %43

21:                                               ; preds = %14, %21
  %22 = phi i8* [ %26, %21 ], [ %19, %14 ]
  %23 = load i8, i8* %22, align 1, !tbaa !5
  %24 = sext i8 %23 to i32
  %25 = call i32 @putchar(i32 %24)
  %26 = getelementptr inbounds i8, i8* %22, i64 1
  %27 = icmp ult i8* %26, %11
  br i1 %27, label %21, label %43, !llvm.loop !8

28:                                               ; preds = %9
  %29 = icmp eq i8* %10, %2
  br i1 %29, label %30, label %43

30:                                               ; preds = %28
  %31 = load i8, i8* %11, align 1, !tbaa !5
  %32 = icmp eq i8 %31, 0
  %33 = select i1 %32, i8* getelementptr inbounds ([1 x i8], [1 x i8]* @.str.1, i64 0, i64 0), i8* getelementptr inbounds ([2 x i8], [2 x i8]* @.str.2, i64 0, i64 0)
  %34 = call i32 (i8*, ...) @printf(i8* nonnull dereferenceable(1) getelementptr inbounds ([3 x i8], [3 x i8]* @.str, i64 0, i64 0), i8* %33)
  %35 = icmp ult i8* %2, %11
  br i1 %35, label %36, label %43

36:                                               ; preds = %30, %36
  %37 = phi i8* [ %41, %36 ], [ %2, %30 ]
  %38 = load i8, i8* %37, align 1, !tbaa !5
  %39 = sext i8 %38 to i32
  %40 = call i32 @putchar(i32 %39)
  %41 = getelementptr inbounds i8, i8* %37, i64 1
  %42 = icmp ult i8* %41, %11
  br i1 %42, label %36, label %43, !llvm.loop !10

43:                                               ; preds = %36, %21, %30, %14, %28
  %44 = phi i8* [ %11, %28 ], [ %10, %14 ], [ %11, %30 ], [ %10, %21 ], [ %11, %36 ]
  %45 = getelementptr inbounds i8, i8* %10, i64 -1
  %46 = icmp ult i8* %45, %2
  br i1 %46, label %47, label %9, !llvm.loop !11

47:                                               ; preds = %43, %0
  call void @llvm.lifetime.end.p0i8(i64 101, i8* nonnull %2) #6
  ret void
}

; Function Attrs: argmemonly mustprogress nofree nosync nounwind willreturn
declare void @llvm.lifetime.start.p0i8(i64 immarg, i8* nocapture) #1

declare i32 @gets(...) local_unnamed_addr #2

; Function Attrs: argmemonly mustprogress nofree nounwind readonly willreturn
declare i64 @strlen(i8* nocapture) local_unnamed_addr #3

; Function Attrs: nofree nounwind
declare noundef i32 @printf(i8* nocapture noundef readonly, ...) local_unnamed_addr #4

; Function Attrs: argmemonly mustprogress nofree nosync nounwind willreturn
declare void @llvm.lifetime.end.p0i8(i64 immarg, i8* nocapture) #1

; Function Attrs: nofree nounwind
declare noundef i32 @putchar(i32 noundef) local_unnamed_addr #5


!llvm.module.flags = !{!0, !1, !2, !3}
!llvm.ident = !{!4}

!0 = !{i32 1, !"wchar_size", i32 4}
!1 = !{i32 7, !"PIC Level", i32 2}
!2 = !{i32 7, !"PIE Level", i32 2}
!3 = !{i32 7, !"uwtable", i32 1}
!4 = !{!"clang version 13.0.0"}
!5 = !{!6, !6, i64 0}
!6 = !{!"omnipotent char", !7, i64 0}
!7 = !{!"Simple C/C++ TBAA"}
!8 = distinct !{!8, !9}
!9 = !{!"llvm.loop.mustprogress"}
!10 = distinct !{!10, !9}
!11 = distinct !{!11, !9}
